; Function Attrs: nounwind uwtable
define noalias ptr @l_Lean_IR_EmitC_declareParams(ptr noundef readonly captures(none) %0, ptr noundef readnone captures(none) %1, ptr noundef %2) local_unnamed_addr #0 {
lean_nat_lt.exit:
  %3 = getelementptr i8, ptr %0, i64 8
  %.val = load i64, ptr %3, align 8, !tbaa !15
  %.mask = and i64 %.val, 9223372036854775807
  %.not = icmp eq i64 %.mask, 0
  br i1 %.not, label %lean_dec.exit29, label %lean_dec.exit

lean_dec.exit29:                                  ; preds = %lean_nat_lt.exit
  tail call void @lean_inc_heartbeat() #5
  %4 = tail call noalias ptr @mi_malloc_small(i64 noundef 24) #5
  %5 = icmp eq ptr %4, null
  br i1 %5, label %6, label %lean_alloc_ctor.exit

6:                                                ; preds = %lean_dec.exit29
  tail call void @lean_internal_panic_out_of_memory() #6
  unreachable

lean_alloc_ctor.exit:                             ; preds = %lean_dec.exit29
  %7 = getelementptr inbounds nuw i8, ptr %4, i64 4
  store i32 1, ptr %4, align 4, !tbaa !8
  store i32 131096, ptr %7, align 4
  %8 = getelementptr inbounds nuw i8, ptr %4, i64 8
  store ptr inttoptr (i64 1 to ptr), ptr %8, align 8, !tbaa !4
  %9 = getelementptr inbounds nuw i8, ptr %4, i64 16
  store ptr %2, ptr %9, align 8, !tbaa !4
  br label %11

lean_dec.exit:                                    ; preds = %lean_nat_lt.exit
  %10 = tail call ptr @l_Array_foldlMUnsafe_fold___at_Lean_IR_EmitC_declareParams___spec__1(ptr noundef nonnull %0, i64 noundef 0, i64 noundef %.mask, ptr noundef nonnull inttoptr (i64 1 to ptr), ptr poison, ptr noundef %2)
  br label %11

11:                                               ; preds = %lean_dec.exit, %lean_alloc_ctor.exit
  %.0 = phi ptr [ %4, %lean_alloc_ctor.exit ], [ %10, %lean_dec.exit ]
  ret ptr %.0
}